	.section	__TEXT,__text,regular,pure_instructions
	.build_version macos, 14, 0	sdk_version 14, 4
	.globl	_do_something_with              ## -- Begin function do_something_with
	.p2align	4, 0x90
_do_something_with:                     ## @do_something_with
	.cfi_startproc
## %bb.0:
	pushq	%rbp
	.cfi_def_cfa_offset 16
	.cfi_offset %rbp, -16
	movq	%rsp, %rbp
	.cfi_def_cfa_register %rbp
	subq	$16, %rsp
	movq	%rdi, -8(%rbp)
	movq	-8(%rbp), %rsi
	leaq	L_.str(%rip), %rdi
	movb	$0, %al
	callq	_printf
	addq	$16, %rsp
	popq	%rbp
	retq
	.cfi_endproc
                                        ## -- End function
	.globl	_vulnerable                     ## -- Begin function vulnerable
	.p2align	4, 0x90
_vulnerable:                            ## @vulnerable
	.cfi_startproc
## %bb.0:
	pushq	%rbp
	.cfi_def_cfa_offset 16
	.cfi_offset %rbp, -16
	movq	%rsp, %rbp
	.cfi_def_cfa_register %rbp
	subq	$112, %rsp
	movq	___stack_chk_guard@GOTPCREL(%rip), %rax
	movq	(%rax), %rax
	movq	%rax, -8(%rbp)
	leaq	-112(%rbp), %rsi
	leaq	L_.str(%rip), %rdi
	movb	$0, %al
	callq	_scanf
	leaq	-112(%rbp), %rdi
	callq	_do_something_with
	movq	___stack_chk_guard@GOTPCREL(%rip), %rax
	movq	(%rax), %rax
	movq	-8(%rbp), %rcx
	cmpq	%rcx, %rax
	jne	LBB1_2
## %bb.1:
	addq	$112, %rsp
	popq	%rbp
	retq
LBB1_2:
	callq	___stack_chk_fail
	ud2
	.cfi_endproc
                                        ## -- End function
	.globl	_main                           ## -- Begin function main
	.p2align	4, 0x90
_main:                                  ## @main
	.cfi_startproc
## %bb.0:
	pushq	%rbp
	.cfi_def_cfa_offset 16
	.cfi_offset %rbp, -16
	movq	%rsp, %rbp
	.cfi_def_cfa_register %rbp
	subq	$16, %rsp
	movl	$0, -4(%rbp)
	callq	_vulnerable
	xorl	%eax, %eax
	addq	$16, %rsp
	popq	%rbp
	retq
	.cfi_endproc
                                        ## -- End function
	.section	__TEXT,__cstring,cstring_literals
L_.str:                                 ## @.str
	.asciz	"%s"

.subsections_via_symbols
